; Function Attrs: mustprogress noreturn uwtable
define internal noalias noundef nonnull ptr @_ZL19icvWindowThreadLoopPv(ptr readnone captures(none) %0) #8 personality ptr @__gxx_personality_v0 {
  %2 = tail call noundef nonnull align 8 dereferenceable(40) ptr @_ZN2cv14getWindowMutexEv()
  %3 = tail call noundef i32 @pthread_mutex_lock(ptr noundef nonnull align 8 dereferenceable(40) %2) #31
  %.not.i.i5 = icmp eq i32 %3, 0
  br i1 %.not.i.i5, label %_ZNSt10lock_guardISt15recursive_mutexEC2ERS0_.exit, label %._crit_edge

._crit_edge:                                      ; preds = %6, %1
  %.lcssa = phi i32 [ %3, %1 ], [ %9, %6 ]
  tail call void @_ZSt20__throw_system_errori(i32 noundef %.lcssa) #32
  unreachable

_ZNSt10lock_guardISt15recursive_mutexEC2ERS0_.exit: ; preds = %1, %6
  %4 = phi ptr [ %8, %6 ], [ %2, %1 ]
  %5 = invoke i32 @gtk_main_iteration_do(i32 noundef 0)
          to label %6 unwind label %10

6:                                                ; preds = %_ZNSt10lock_guardISt15recursive_mutexEC2ERS0_.exit
  %7 = tail call noundef i32 @pthread_mutex_unlock(ptr noundef nonnull align 8 dereferenceable(40) %4) #31
  tail call void @g_usleep(i64 noundef 500)
  tail call void @g_thread_yield()
  %8 = tail call noundef nonnull align 8 dereferenceable(40) ptr @_ZN2cv14getWindowMutexEv()
  %9 = tail call noundef i32 @pthread_mutex_lock(ptr noundef nonnull align 8 dereferenceable(40) %8) #31
  %.not.i.i = icmp eq i32 %9, 0
  br i1 %.not.i.i, label %_ZNSt10lock_guardISt15recursive_mutexEC2ERS0_.exit, label %._crit_edge, !llvm.loop !46

10:                                               ; preds = %_ZNSt10lock_guardISt15recursive_mutexEC2ERS0_.exit
  %11 = landingpad { ptr, i32 }
          cleanup
  %12 = tail call noundef i32 @pthread_mutex_unlock(ptr noundef nonnull align 8 dereferenceable(40) %4) #31
  resume { ptr, i32 } %11
}